target datalayout = "e-m:e-p270:32:32-p271:32:32-p272:64:64-i64:64-i128:128-f80:128-n8:16:32:64-S128"
target triple = "x86_64-pc-linux-gnu"

%class.RecVolumes3 = type { [256 x ptr], %class.Array }
%class.Array = type { ptr, i64, i64, i64 }

; Function Attrs: mustprogress nounwind uwtable
define linkonce_odr void @_ZN5ArrayIhED2Ev(ptr noundef nonnull align 8 dereferenceable(32) %0) unnamed_addr #2 comdat align 2 {
  %2 = alloca ptr, align 8
  store ptr %0, ptr %2, align 8
  %3 = load ptr, ptr %2, align 8
  %4 = getelementptr inbounds %class.Array, ptr %3, i32 0, i32 0
  %5 = load ptr, ptr %4, align 8
  %6 = icmp ne ptr %5, null
  br i1 %6, label %7, label %10

7:                                                ; preds = %1
  %8 = getelementptr inbounds %class.Array, ptr %3, i32 0, i32 0
  %9 = load ptr, ptr %8, align 8
  call void @free(ptr noundef %9) #11
  br label %10

10:                                               ; preds = %7, %1
  ret void
}

; Function Attrs: mustprogress nounwind uwtable
define void @_ZN11RecVolumes3D2Ev(ptr noundef nonnull align 8 dereferenceable(2080) %0) unnamed_addr #2 align 2 {
  %2 = alloca ptr, align 8
  %3 = alloca i64, align 8
  store ptr %0, ptr %2, align 8
  %4 = load ptr, ptr %2, align 8
  store i64 0, ptr %3, align 8
  br label %5

5:                                                ; preds = %19, %1
  %6 = load i64, ptr %3, align 8
  %7 = icmp ult i64 %6, 256
  br i1 %7, label %8, label %22

8:                                                ; preds = %5
  %9 = getelementptr inbounds %class.RecVolumes3, ptr %4, i32 0, i32 0
  %10 = load i64, ptr %3, align 8
  %11 = getelementptr inbounds [256 x ptr], ptr %9, i64 0, i64 %10
  %12 = load ptr, ptr %11, align 8
  %13 = icmp eq ptr %12, null
  br i1 %13, label %18, label %14

14:                                               ; preds = %8
  %15 = load ptr, ptr %12, align 8
  %16 = getelementptr inbounds ptr, ptr %15, i64 1
  %17 = load ptr, ptr %16, align 8
  call void %17(ptr noundef nonnull align 8 dereferenceable(8256) %12) #11
  br label %18

18:                                               ; preds = %14, %8
  br label %19

19:                                               ; preds = %18
  %20 = load i64, ptr %3, align 8
  %21 = add i64 %20, 1
  store i64 %21, ptr %3, align 8
  br label %5, !llvm.loop !4

22:                                               ; preds = %5
  %23 = getelementptr inbounds %class.RecVolumes3, ptr %4, i32 0, i32 1
  call void @_ZN5ArrayIhED2Ev(ptr noundef nonnull align 8 dereferenceable(32) %23) #11
  ret void
}