; Function Attrs: mustprogress nounwind uwtable
define void @_ZN11RecVolumes3D2Ev(ptr nocapture noundef nonnull readonly align 8 dereferenceable(2080) %0) unnamed_addr #2 align 2 {
  br label %2

2:                                                ; preds = %1, %10
  %.04 = phi i64 [ 0, %1 ], [ %11, %10 ]
  %3 = getelementptr inbounds [256 x ptr], ptr %0, i64 0, i64 %.04
  %4 = load ptr, ptr %3, align 8
  %5 = icmp eq ptr %4, null
  br i1 %5, label %10, label %6

6:                                                ; preds = %2
  %7 = load ptr, ptr %4, align 8
  %8 = getelementptr inbounds i8, ptr %7, i64 8
  %9 = load ptr, ptr %8, align 8
  tail call void %9(ptr noundef nonnull align 8 dereferenceable(8256) %4) #14
  br label %10

10:                                               ; preds = %2, %6
  %11 = add nuw nsw i64 %.04, 1
  %exitcond.not = icmp eq i64 %11, 256
  br i1 %exitcond.not, label %12, label %2, !llvm.loop !4

12:                                               ; preds = %10
  %13 = getelementptr inbounds i8, ptr %0, i64 2048
  %14 = load ptr, ptr %13, align 8
  %.not.i = icmp eq ptr %14, null
  br i1 %.not.i, label %_ZN5ArrayIhED2Ev.exit, label %15

15:                                               ; preds = %12
  tail call void @free(ptr noundef nonnull %14) #14
  br label %_ZN5ArrayIhED2Ev.exit

_ZN5ArrayIhED2Ev.exit:                            ; preds = %12, %15
  ret void
}